target datalayout = "e-m:e-p270:32:32-p271:32:32-p272:64:64-i64:64-i128:128-f80:128-n8:16:32:64-S128"
target triple = "x86_64-unknown-linux-gnu"

; Function Attrs: mustprogress uwtable
define hidden noundef i32 @_ZN18OpenImageIO_v2_6_08PSDInput18read_pascal_stringERNSt7__cxx1112basic_stringIcSt11char_traitsIcESaIcEEEt(ptr noundef nonnull align 8 dereferenceable(840) %this, ptr noundef nonnull align 8 dereferenceable(32) %s, i16 noundef zeroext %mod_padding) #6 align 2 {
entry:
  %this.addr = alloca ptr, align 8
  %s.addr = alloca ptr, align 8
  %mod_padding.addr = alloca i16, align 2
  %length = alloca i8, align 1
  %bytes = alloca i32, align 4
  %padded_length = alloca i32, align 4
  store ptr %this, ptr %this.addr, align 8
  store ptr %s, ptr %s.addr, align 8
  store i16 %mod_padding, ptr %mod_padding.addr, align 2
  %this1 = load ptr, ptr %this.addr, align 8
  %0 = load ptr, ptr %s.addr, align 8
  call void @_ZNSt7__cxx1112basic_stringIcSt11char_traitsIcESaIcEE5clearEv(ptr noundef nonnull align 8 dereferenceable(32) %0) #3
  store i32 0, ptr %bytes, align 4
  %call = call noundef zeroext i1 @_ZN18OpenImageIO_v2_6_010ImageInput6ioreadEPvmm(ptr noundef nonnull align 8 dereferenceable(184) %this1, ptr noundef %length, i64 noundef 1, i64 noundef 1)
  br i1 %call, label %if.then, label %if.end30

if.then:                                          ; preds = %entry
  store i32 1, ptr %bytes, align 4
  %1 = load i8, ptr %length, align 1
  %conv = zext i8 %1 to i32
  %cmp = icmp eq i32 %conv, 0
  br i1 %cmp, label %if.then2, label %if.else

if.then2:                                         ; preds = %if.then
  %2 = load i16, ptr %mod_padding.addr, align 2
  %conv3 = zext i16 %2 to i32
  %sub = sub nsw i32 %conv3, 1
  %conv4 = sext i32 %sub to i64
  %call5 = call noundef zeroext i1 @_ZN18OpenImageIO_v2_6_010ImageInput6ioseekEli(ptr noundef nonnull align 8 dereferenceable(184) %this1, i64 noundef %conv4, i32 noundef 1)
  br i1 %call5, label %if.then6, label %if.end

if.then6:                                         ; preds = %if.then2
  %3 = load i16, ptr %mod_padding.addr, align 2
  %conv7 = zext i16 %3 to i32
  %sub8 = sub nsw i32 %conv7, 1
  %4 = load i32, ptr %bytes, align 4
  %add = add nsw i32 %4, %sub8
  store i32 %add, ptr %bytes, align 4
  br label %if.end

if.end:                                           ; preds = %if.then6, %if.then2
  br label %if.end29

if.else:                                          ; preds = %if.then
  %5 = load ptr, ptr %s.addr, align 8
  %6 = load i8, ptr %length, align 1
  %conv9 = zext i8 %6 to i64
  call void @_ZNSt7__cxx1112basic_stringIcSt11char_traitsIcESaIcEE6resizeEm(ptr noundef nonnull align 8 dereferenceable(32) %5, i64 noundef %conv9)
  %7 = load ptr, ptr %s.addr, align 8
  %call10 = call noundef nonnull align 1 dereferenceable(1) ptr @_ZNSt7__cxx1112basic_stringIcSt11char_traitsIcESaIcEEixEm(ptr noundef nonnull align 8 dereferenceable(32) %7, i64 noundef 0)
  %8 = load i8, ptr %length, align 1
  %conv11 = zext i8 %8 to i64
  %call12 = call noundef zeroext i1 @_ZN18OpenImageIO_v2_6_010ImageInput6ioreadEPvmm(ptr noundef nonnull align 8 dereferenceable(184) %this1, ptr noundef %call10, i64 noundef %conv11, i64 noundef 1)
  br i1 %call12, label %if.then13, label %if.end28

if.then13:                                        ; preds = %if.else
  %9 = load i8, ptr %length, align 1
  %conv14 = zext i8 %9 to i32
  %10 = load i32, ptr %bytes, align 4
  %add15 = add nsw i32 %10, %conv14
  store i32 %add15, ptr %bytes, align 4
  %11 = load i16, ptr %mod_padding.addr, align 2
  %conv16 = zext i16 %11 to i32
  %cmp17 = icmp sgt i32 %conv16, 0
  br i1 %cmp17, label %if.then18, label %if.end27

if.then18:                                        ; preds = %if.then13
  %12 = load i8, ptr %length, align 1
  %conv19 = zext i8 %12 to i32
  %add20 = add nsw i32 %conv19, 1
  store i32 %add20, ptr %padded_length, align 4
  br label %for.cond

for.cond:                                         ; preds = %for.inc, %if.then18
  %13 = load i32, ptr %padded_length, align 4
  %14 = load i16, ptr %mod_padding.addr, align 2
  %conv21 = zext i16 %14 to i32
  %rem = srem i32 %13, %conv21
  %cmp22 = icmp ne i32 %rem, 0
  br i1 %cmp22, label %for.body, label %for.end

for.body:                                         ; preds = %for.cond
  %call23 = call noundef zeroext i1 @_ZN18OpenImageIO_v2_6_010ImageInput6ioseekEli(ptr noundef nonnull align 8 dereferenceable(184) %this1, i64 noundef 1, i32 noundef 1)
  br i1 %call23, label %if.end25, label %if.then24

if.then24:                                        ; preds = %for.body
  br label %for.end

if.end25:                                         ; preds = %for.body
  %15 = load i32, ptr %bytes, align 4
  %inc = add nsw i32 %15, 1
  store i32 %inc, ptr %bytes, align 4
  br label %for.inc

for.inc:                                          ; preds = %if.end25
  %16 = load i32, ptr %padded_length, align 4
  %inc26 = add nsw i32 %16, 1
  store i32 %inc26, ptr %padded_length, align 4
  br label %for.cond, !llvm.loop !52

for.end:                                          ; preds = %if.then24, %for.cond
  br label %if.end27

if.end27:                                         ; preds = %for.end, %if.then13
  br label %if.end28

if.end28:                                         ; preds = %if.end27, %if.else
  br label %if.end29

if.end29:                                         ; preds = %if.end28, %if.end
  br label %if.end30

if.end30:                                         ; preds = %if.end29, %entry
  %17 = load i32, ptr %bytes, align 4
  ret i32 %17
}