; Function Attrs: mustprogress uwtable
define hidden noundef i32 @_ZN18OpenImageIO_v2_6_08PSDInput18read_pascal_stringERNSt7__cxx1112basic_stringIcSt11char_traitsIcESaIcEEEt(ptr noundef nonnull align 8 dereferenceable(840) %this, ptr noundef nonnull align 8 dereferenceable(32) %s, i16 noundef zeroext %mod_padding) local_unnamed_addr #5 align 2 {
entry:
  %length = alloca i8, align 1
  tail call void @_ZNSt7__cxx1112basic_stringIcSt11char_traitsIcESaIcEE5clearEv(ptr noundef nonnull align 8 dereferenceable(32) %s) #28
  %call = call noundef zeroext i1 @_ZN18OpenImageIO_v2_6_010ImageInput6ioreadEPvmm(ptr noundef nonnull align 8 dereferenceable(184) %this, ptr noundef nonnull %length, i64 noundef 1, i64 noundef 1)
  br i1 %call, label %if.then, label %if.end30

if.then:                                          ; preds = %entry
  %0 = load i8, ptr %length, align 1
  %cmp = icmp eq i8 %0, 0
  br i1 %cmp, label %if.then2, label %if.else

if.then2:                                         ; preds = %if.then
  %conv3 = zext i16 %mod_padding to i32
  %sub = add nsw i32 %conv3, -1
  %conv4 = sext i32 %sub to i64
  %call5 = call noundef zeroext i1 @_ZN18OpenImageIO_v2_6_010ImageInput6ioseekEli(ptr noundef nonnull align 8 dereferenceable(184) %this, i64 noundef %conv4, i32 noundef 1)
  %spec.select = select i1 %call5, i32 %conv3, i32 1
  br label %if.end30

if.else:                                          ; preds = %if.then
  %conv9 = zext i8 %0 to i64
  call void @_ZNSt7__cxx1112basic_stringIcSt11char_traitsIcESaIcEE6resizeEm(ptr noundef nonnull align 8 dereferenceable(32) %s, i64 noundef %conv9)
  %call10 = call noundef nonnull align 1 dereferenceable(1) ptr @_ZNSt7__cxx1112basic_stringIcSt11char_traitsIcESaIcEEixEm(ptr noundef nonnull align 8 dereferenceable(32) %s, i64 noundef 0)
  %1 = load i8, ptr %length, align 1
  %conv11 = zext i8 %1 to i64
  %call12 = call noundef zeroext i1 @_ZN18OpenImageIO_v2_6_010ImageInput6ioreadEPvmm(ptr noundef nonnull align 8 dereferenceable(184) %this, ptr noundef nonnull %call10, i64 noundef %conv11, i64 noundef 1)
  br i1 %call12, label %if.then13, label %if.end30

if.then13:                                        ; preds = %if.else
  %2 = load i8, ptr %length, align 1
  %conv14 = zext i8 %2 to i32
  %add15 = add nuw nsw i32 %conv14, 1
  %conv16 = zext i16 %mod_padding to i32
  %cmp17.not = icmp eq i16 %mod_padding, 0
  br i1 %cmp17.not, label %if.end30, label %for.cond.preheader

for.cond.preheader:                               ; preds = %if.then13
  %rem10.lhs.trunc = trunc i32 %add15 to i16
  %rem1015 = urem i16 %rem10.lhs.trunc, %mod_padding
  %cmp22.not11 = icmp eq i16 %rem1015, 0
  br i1 %cmp22.not11, label %if.end30, label %for.body

for.body:                                         ; preds = %for.cond.preheader, %if.end25
  %padded_length.013 = phi i32 [ %inc26, %if.end25 ], [ %add15, %for.cond.preheader ]
  %call23 = call noundef zeroext i1 @_ZN18OpenImageIO_v2_6_010ImageInput6ioseekEli(ptr noundef nonnull align 8 dereferenceable(184) %this, i64 noundef 1, i32 noundef 1)
  br i1 %call23, label %if.end25, label %if.end30

if.end25:                                         ; preds = %for.body
  %inc26 = add nuw nsw i32 %padded_length.013, 1
  %rem = urem i32 %inc26, %conv16
  %cmp22.not = icmp eq i32 %rem, 0
  br i1 %cmp22.not, label %if.end30, label %for.body, !llvm.loop !96

if.end30:                                         ; preds = %if.end25, %for.body, %for.cond.preheader, %if.then2, %if.then13, %if.else, %entry
  %bytes.1 = phi i32 [ %add15, %if.then13 ], [ 1, %if.else ], [ 0, %entry ], [ %spec.select, %if.then2 ], [ %add15, %for.cond.preheader ], [ %inc26, %if.end25 ], [ %padded_length.013, %for.body ]
  ret i32 %bytes.1
}